target datalayout = "e-m:e-p270:32:32-p271:32:32-p272:64:64-i64:64-i128:128-f80:128-n8:16:32:64-S128"
target triple = "x86_64-pc-linux-gnu"

@IsUnderPostmaster = external global i8, align 1
@LatchWaitSet = internal global ptr null, align 8
@MyLatch = external global ptr, align 8

; Function Attrs: nounwind uwtable
define dso_local void @InitializeLatchWaitSet() #0 {
  %1 = alloca i32, align 4
  call void @llvm.lifetime.start.p0(i64 4, ptr %1) #9
  %2 = call ptr @CreateWaitEventSet(ptr noundef null, i32 noundef 2)
  store ptr %2, ptr @LatchWaitSet, align 8
  %3 = load ptr, ptr @LatchWaitSet, align 8
  %4 = load ptr, ptr @MyLatch, align 8
  %5 = call i32 @AddWaitEventToSet(ptr noundef %3, i32 noundef 1, i32 noundef -1, ptr noundef %4, ptr noundef null)
  store i32 %5, ptr %1, align 4
  %6 = load i8, ptr @IsUnderPostmaster, align 1, !range !4, !noundef !5
  %7 = trunc i8 %6 to i1
  br i1 %7, label %8, label %11

8:                                                ; preds = %0
  %9 = load ptr, ptr @LatchWaitSet, align 8
  %10 = call i32 @AddWaitEventToSet(ptr noundef %9, i32 noundef 32, i32 noundef -1, ptr noundef null, ptr noundef null)
  br label %11

11:                                               ; preds = %8, %0
  call void @llvm.lifetime.end.p0(i64 4, ptr %1) #9
  ret void
}