; Function Attrs: nounwind uwtable
define dso_local void @InitializeLatchWaitSet() local_unnamed_addr #0 {
  %1 = tail call ptr @CreateWaitEventSet(ptr noundef null, i32 noundef 2)
  store ptr %1, ptr @LatchWaitSet, align 8
  %2 = load ptr, ptr @MyLatch, align 8
  %3 = tail call i32 @AddWaitEventToSet(ptr noundef %1, i32 noundef 1, i32 noundef -1, ptr noundef %2, ptr noundef null)
  %4 = load i8, ptr @IsUnderPostmaster, align 1, !range !4, !noundef !5
  %5 = trunc nuw i8 %4 to i1
  br i1 %5, label %6, label %20

6:                                                ; preds = %0
  %7 = load ptr, ptr @LatchWaitSet, align 8
  %8 = getelementptr inbounds nuw i8, ptr %7, i64 36
  store i8 1, ptr %8, align 4
  %9 = getelementptr inbounds nuw i8, ptr %7, i64 16
  %10 = load ptr, ptr %9, align 8
  %11 = getelementptr inbounds nuw i8, ptr %7, i64 8
  %12 = load i32, ptr %11, align 8
  %13 = sext i32 %12 to i64
  %14 = getelementptr inbounds %struct.WaitEvent, ptr %10, i64 %13
  %15 = add i32 %12, 1
  store i32 %15, ptr %11, align 8
  store i32 %12, ptr %14, align 8
  %16 = getelementptr inbounds nuw i8, ptr %14, i64 8
  store i32 -1, ptr %16, align 8
  %17 = getelementptr inbounds nuw i8, ptr %14, i64 4
  store i32 16, ptr %17, align 4
  %18 = getelementptr inbounds nuw i8, ptr %14, i64 16
  store ptr null, ptr %18, align 8
  %19 = load i32, ptr @postmaster_alive_fds, align 4
  store i32 %19, ptr %16, align 8
  tail call fastcc void @WaitEventAdjustEpoll(ptr noundef nonnull %7, ptr noundef nonnull %14, i32 noundef 1)
  br label %20

20:                                               ; preds = %6, %0
  ret void
}